target datalayout = "e-m:e-p270:32:32-p271:32:32-p272:64:64-i64:64-i128:128-f80:128-n8:16:32:64-S128"
target triple = "x86_64-pc-linux-gnu"

%struct.pmix_mca_base_framework_t = type { ptr, ptr, ptr, ptr, ptr, ptr, i32, i32, ptr, ptr, i32, i32, %struct.pmix_list_t, %struct.pmix_list_t }
%struct.pmix_list_t = type { %struct.pmix_object_t, %struct.pmix_list_item_t, i64 }
%struct.pmix_object_t = type { %union.pthread_mutex_t, ptr, i32, %struct.pmix_tma }
%union.pthread_mutex_t = type { %struct.__pthread_mutex_s }
%struct.__pthread_mutex_s = type { i32, i32, i32, i32, i32, i16, i16, %struct.__pthread_internal_list }
%struct.__pthread_internal_list = type { ptr, ptr }
%struct.pmix_tma = type { ptr, ptr, ptr, ptr, ptr, ptr, ptr, ptr }
%struct.pmix_list_item_t = type { %struct.pmix_object_t, ptr, ptr, i32 }
%struct.pmix_output_desc_t = type { i8, i8, i32, i8, i32, ptr, ptr, i32, ptr, i32, i8, i8, i8, i8, ptr, i32, i32 }
%struct.sockaddr_in = type { i16, i16, %struct.in_addr, [8 x i8] }
%struct.in_addr = type { i32 }
%struct.sockaddr_in6 = type { i16, i16, i32, %struct.in6_addr, i32 }
%struct.in6_addr = type { %union.anon.10 }
%union.anon.10 = type { [4 x i32] }

@pmix_ptl_base_framework = external global %struct.pmix_mca_base_framework_t, align 8
@pmix_output_info = external global [0 x %struct.pmix_output_desc_t], align 8
@.str.33 = private unnamed_addr constant [37 x i8] c"PMIX ERROR: %s in file %s at line %d\00", align 1
@.str.34 = private unnamed_addr constant [20 x i8] c"base/ptl_base_fns.c\00", align 1
@.str.42 = private unnamed_addr constant [33 x i8] c"pmix:base setup connection to %s\00", align 1
@.str.43 = private unnamed_addr constant [5 x i8] c"tcp4\00", align 1
@.str.44 = private unnamed_addr constant [41 x i8] c"ptl_tcp_parse_uri: Could not convert %s\0A\00", align 1

; Function Attrs: inlinehint nounwind uwtable
define internal zeroext i16 @__bswap_16(i16 noundef zeroext %0) #6 {
  %2 = alloca i16, align 2
  store i16 %0, ptr %2, align 2, !tbaa !131
  %3 = load i16, ptr %2, align 2, !tbaa !131
  %4 = zext i16 %3 to i32
  %5 = ashr i32 %4, 8
  %6 = and i32 %5, 255
  %7 = load i16, ptr %2, align 2, !tbaa !131
  %8 = zext i16 %7 to i32
  %9 = and i32 %8, 255
  %10 = shl i32 %9, 8
  %11 = or i32 %6, %10
  %12 = trunc i32 %11 to i16
  ret i16 %12
}

; Function Attrs: inlinehint nounwind willreturn memory(read) uwtable
define available_externally i32 @atoi(ptr noundef nonnull %0) #8 {
  %2 = alloca ptr, align 8
  store ptr %0, ptr %2, align 8, !tbaa !8
  %3 = load ptr, ptr %2, align 8, !tbaa !8
  %4 = call i64 @strtol(ptr noundef %3, ptr noundef null, i32 noundef 10) #13
  %5 = trunc i64 %4 to i32
  ret i32 %5
}

; Function Attrs: nounwind uwtable
define i32 @pmix_ptl_base_setup_connection(ptr noundef %0, ptr noundef %1, ptr noundef %2) #0 {
  %4 = alloca i32, align 4
  %5 = alloca ptr, align 8
  %6 = alloca ptr, align 8
  %7 = alloca ptr, align 8
  %8 = alloca ptr, align 8
  %9 = alloca ptr, align 8
  %10 = alloca ptr, align 8
  %11 = alloca ptr, align 8
  %12 = alloca ptr, align 8
  %13 = alloca i32, align 4
  store ptr %0, ptr %5, align 8, !tbaa !8
  store ptr %1, ptr %6, align 8, !tbaa !147
  store ptr %2, ptr %7, align 8, !tbaa !148
  call void @llvm.lifetime.start.p0(i64 8, ptr %8) #13
  store ptr null, ptr %8, align 8, !tbaa !8
  call void @llvm.lifetime.start.p0(i64 8, ptr %9) #13
  call void @llvm.lifetime.start.p0(i64 8, ptr %10) #13
  call void @llvm.lifetime.start.p0(i64 8, ptr %11) #13
  call void @llvm.lifetime.start.p0(i64 8, ptr %12) #13
  %14 = load i32, ptr getelementptr inbounds nuw (%struct.pmix_mca_base_framework_t, ptr @pmix_ptl_base_framework, i32 0, i32 11), align 4, !tbaa !37
  %15 = icmp sge i32 %14, 0
  br i1 %15, label %16, label %29

16:                                               ; preds = %3
  %17 = load i32, ptr getelementptr inbounds nuw (%struct.pmix_mca_base_framework_t, ptr @pmix_ptl_base_framework, i32 0, i32 11), align 4, !tbaa !37
  %18 = icmp slt i32 %17, 64
  br i1 %18, label %19, label %29

19:                                               ; preds = %16
  %20 = load i32, ptr getelementptr inbounds nuw (%struct.pmix_mca_base_framework_t, ptr @pmix_ptl_base_framework, i32 0, i32 11), align 4, !tbaa !37
  %21 = sext i32 %20 to i64
  %22 = getelementptr inbounds [0 x %struct.pmix_output_desc_t], ptr @pmix_output_info, i64 0, i64 %21
  %23 = getelementptr inbounds nuw %struct.pmix_output_desc_t, ptr %22, i32 0, i32 2
  %24 = load i32, ptr %23, align 4, !tbaa !40
  %25 = icmp sge i32 %24, 2
  br i1 %25, label %26, label %29

26:                                               ; preds = %19
  %27 = load i32, ptr getelementptr inbounds nuw (%struct.pmix_mca_base_framework_t, ptr @pmix_ptl_base_framework, i32 0, i32 11), align 4, !tbaa !37
  %28 = load ptr, ptr %5, align 8, !tbaa !8
  call void (i32, ptr, ...) @pmix_output(i32 noundef %27, ptr noundef @.str.42, ptr noundef %28)
  br label %29

29:                                               ; preds = %26, %19, %16, %3
  %30 = load ptr, ptr %6, align 8, !tbaa !147
  call void @llvm.memset.p0.i64(ptr align 8 %30, i8 0, i64 128, i1 false)
  %31 = load ptr, ptr %5, align 8, !tbaa !8
  %32 = call i32 @strncmp(ptr noundef %31, ptr noundef @.str.43, i64 noundef 4) #14
  %33 = icmp eq i32 0, %32
  br i1 %33, label %34, label %88

34:                                               ; preds = %29
  %35 = load ptr, ptr %5, align 8, !tbaa !8
  %36 = getelementptr inbounds i8, ptr %35, i64 7
  %37 = call noalias ptr @strdup(ptr noundef %36) #13
  store ptr %37, ptr %8, align 8, !tbaa !8
  %38 = load ptr, ptr %8, align 8, !tbaa !8
  %39 = icmp eq ptr null, %38
  br i1 %39, label %40, label %45

40:                                               ; preds = %34
  br label %41

41:                                               ; preds = %40
  %42 = call ptr @PMIx_Error_string(i32 noundef -32)
  call void (i32, ptr, ...) @pmix_output(i32 noundef 0, ptr noundef @.str.33, ptr noundef %42, ptr noundef @.str.34, i32 noundef 475)
  br label %43

43:                                               ; preds = %41
  br label %44

44:                                               ; preds = %43
  store i32 -32, ptr %4, align 4
  store i32 1, ptr %13, align 4
  br label %168

45:                                               ; preds = %34
  %46 = load ptr, ptr %8, align 8, !tbaa !8
  %47 = call ptr @strrchr(ptr noundef %46, i32 noundef 58) #14
  store ptr %47, ptr %9, align 8, !tbaa !8
  %48 = load ptr, ptr %9, align 8, !tbaa !8
  %49 = icmp eq ptr null, %48
  br i1 %49, label %50, label %56

50:                                               ; preds = %45
  %51 = load ptr, ptr %8, align 8, !tbaa !8
  call void @free(ptr noundef %51) #13
  br label %52

52:                                               ; preds = %50
  %53 = call ptr @PMIx_Error_string(i32 noundef -27)
  call void (i32, ptr, ...) @pmix_output(i32 noundef 0, ptr noundef @.str.33, ptr noundef %53, ptr noundef @.str.34, i32 noundef 483)
  br label %54

54:                                               ; preds = %52
  br label %55

55:                                               ; preds = %54
  store i32 -27, ptr %4, align 4
  store i32 1, ptr %13, align 4
  br label %168

56:                                               ; preds = %45
  %57 = load ptr, ptr %9, align 8, !tbaa !8
  store i8 0, ptr %57, align 1, !tbaa !32
  %58 = load ptr, ptr %9, align 8, !tbaa !8
  %59 = getelementptr inbounds nuw i8, ptr %58, i32 1
  store ptr %59, ptr %9, align 8, !tbaa !8
  %60 = load ptr, ptr %8, align 8, !tbaa !8
  store ptr %60, ptr %10, align 8, !tbaa !8
  %61 = load ptr, ptr %6, align 8, !tbaa !147
  store ptr %61, ptr %11, align 8, !tbaa !149
  %62 = load ptr, ptr %11, align 8, !tbaa !149
  %63 = getelementptr inbounds nuw %struct.sockaddr_in, ptr %62, i32 0, i32 0
  store i16 2, ptr %63, align 4, !tbaa !151
  %64 = load ptr, ptr %10, align 8, !tbaa !8
  %65 = call i32 @inet_addr(ptr noundef %64) #13
  %66 = load ptr, ptr %11, align 8, !tbaa !149
  %67 = getelementptr inbounds nuw %struct.sockaddr_in, ptr %66, i32 0, i32 2
  %68 = getelementptr inbounds nuw %struct.in_addr, ptr %67, i32 0, i32 0
  store i32 %65, ptr %68, align 4, !tbaa !154
  %69 = load ptr, ptr %11, align 8, !tbaa !149
  %70 = getelementptr inbounds nuw %struct.sockaddr_in, ptr %69, i32 0, i32 2
  %71 = getelementptr inbounds nuw %struct.in_addr, ptr %70, i32 0, i32 0
  %72 = load i32, ptr %71, align 4, !tbaa !154
  %73 = icmp eq i32 %72, -1
  br i1 %73, label %74, label %80

74:                                               ; preds = %56
  %75 = load ptr, ptr %8, align 8, !tbaa !8
  call void @free(ptr noundef %75) #13
  br label %76

76:                                               ; preds = %74
  %77 = call ptr @PMIx_Error_string(i32 noundef -27)
  call void (i32, ptr, ...) @pmix_output(i32 noundef 0, ptr noundef @.str.33, ptr noundef %77, ptr noundef @.str.34, i32 noundef 495)
  br label %78

78:                                               ; preds = %76
  br label %79

79:                                               ; preds = %78
  store i32 -27, ptr %4, align 4
  store i32 1, ptr %13, align 4
  br label %168

80:                                               ; preds = %56
  %81 = load ptr, ptr %9, align 8, !tbaa !8
  %82 = call i32 @atoi(ptr noundef %81) #14
  %83 = trunc i32 %82 to i16
  %84 = call zeroext i16 @__bswap_16(i16 noundef zeroext %83)
  %85 = load ptr, ptr %11, align 8, !tbaa !149
  %86 = getelementptr inbounds nuw %struct.sockaddr_in, ptr %85, i32 0, i32 1
  store i16 %84, ptr %86, align 2, !tbaa !155
  %87 = load ptr, ptr %7, align 8, !tbaa !148
  store i64 16, ptr %87, align 8, !tbaa !33
  br label %162

88:                                               ; preds = %29
  %89 = load ptr, ptr %5, align 8, !tbaa !8
  %90 = getelementptr inbounds i8, ptr %89, i64 7
  %91 = call noalias ptr @strdup(ptr noundef %90) #13
  store ptr %91, ptr %8, align 8, !tbaa !8
  %92 = load ptr, ptr %8, align 8, !tbaa !8
  %93 = icmp eq ptr null, %92
  br i1 %93, label %94, label %99

94:                                               ; preds = %88
  br label %95

95:                                               ; preds = %94
  %96 = call ptr @PMIx_Error_string(i32 noundef -32)
  call void (i32, ptr, ...) @pmix_output(i32 noundef 0, ptr noundef @.str.33, ptr noundef %96, ptr noundef @.str.34, i32 noundef 504)
  br label %97

97:                                               ; preds = %95
  br label %98

98:                                               ; preds = %97
  store i32 -32, ptr %4, align 4
  store i32 1, ptr %13, align 4
  br label %168

99:                                               ; preds = %88
  %100 = load ptr, ptr %8, align 8, !tbaa !8
  %101 = call ptr @strrchr(ptr noundef %100, i32 noundef 58) #14
  store ptr %101, ptr %9, align 8, !tbaa !8
  %102 = load ptr, ptr %9, align 8, !tbaa !8
  %103 = icmp eq ptr null, %102
  br i1 %103, label %104, label %110

104:                                              ; preds = %99
  %105 = load ptr, ptr %8, align 8, !tbaa !8
  call void @free(ptr noundef %105) #13
  br label %106

106:                                              ; preds = %104
  %107 = call ptr @PMIx_Error_string(i32 noundef -27)
  call void (i32, ptr, ...) @pmix_output(i32 noundef 0, ptr noundef @.str.33, ptr noundef %107, ptr noundef @.str.34, i32 noundef 511)
  br label %108

108:                                              ; preds = %106
  br label %109

109:                                              ; preds = %108
  store i32 -27, ptr %4, align 4
  store i32 1, ptr %13, align 4
  br label %168

110:                                              ; preds = %99
  %111 = load ptr, ptr %9, align 8, !tbaa !8
  store i8 0, ptr %111, align 1, !tbaa !32
  %112 = load ptr, ptr %8, align 8, !tbaa !8
  %113 = load ptr, ptr %8, align 8, !tbaa !8
  %114 = call i64 @strlen(ptr noundef %113) #14
  %115 = sub i64 %114, 1
  %116 = getelementptr inbounds nuw i8, ptr %112, i64 %115
  %117 = load i8, ptr %116, align 1, !tbaa !32
  %118 = sext i8 %117 to i32
  %119 = icmp eq i32 93, %118
  br i1 %119, label %120, label %126

120:                                              ; preds = %110
  %121 = load ptr, ptr %8, align 8, !tbaa !8
  %122 = load ptr, ptr %8, align 8, !tbaa !8
  %123 = call i64 @strlen(ptr noundef %122) #14
  %124 = sub i64 %123, 1
  %125 = getelementptr inbounds nuw i8, ptr %121, i64 %124
  store i8 0, ptr %125, align 1, !tbaa !32
  br label %126

126:                                              ; preds = %120, %110
  %127 = load ptr, ptr %8, align 8, !tbaa !8
  %128 = getelementptr inbounds i8, ptr %127, i64 0
  %129 = load i8, ptr %128, align 1, !tbaa !32
  %130 = sext i8 %129 to i32
  %131 = icmp eq i32 91, %130
  br i1 %131, label %132, label %135

132:                                              ; preds = %126
  %133 = load ptr, ptr %8, align 8, !tbaa !8
  %134 = getelementptr inbounds i8, ptr %133, i64 1
  store ptr %134, ptr %10, align 8, !tbaa !8
  br label %138

135:                                              ; preds = %126
  %136 = load ptr, ptr %8, align 8, !tbaa !8
  %137 = getelementptr inbounds i8, ptr %136, i64 0
  store ptr %137, ptr %10, align 8, !tbaa !8
  br label %138

138:                                              ; preds = %135, %132
  %139 = load ptr, ptr %6, align 8, !tbaa !147
  store ptr %139, ptr %12, align 8, !tbaa !156
  %140 = load ptr, ptr %12, align 8, !tbaa !156
  %141 = getelementptr inbounds nuw %struct.sockaddr_in6, ptr %140, i32 0, i32 0
  store i16 10, ptr %141, align 4, !tbaa !158
  %142 = load ptr, ptr %10, align 8, !tbaa !8
  %143 = load ptr, ptr %12, align 8, !tbaa !156
  %144 = getelementptr inbounds nuw %struct.sockaddr_in6, ptr %143, i32 0, i32 3
  %145 = call i32 @inet_pton(i32 noundef 10, ptr noundef %142, ptr noundef %144) #13
  %146 = icmp eq i32 0, %145
  br i1 %146, label %147, label %154

147:                                              ; preds = %138
  %148 = load ptr, ptr %10, align 8, !tbaa !8
  call void (i32, ptr, ...) @pmix_output(i32 noundef 0, ptr noundef @.str.44, ptr noundef %148)
  %149 = load ptr, ptr %8, align 8, !tbaa !8
  call void @free(ptr noundef %149) #13
  br label %150

150:                                              ; preds = %147
  %151 = call ptr @PMIx_Error_string(i32 noundef -27)
  call void (i32, ptr, ...) @pmix_output(i32 noundef 0, ptr noundef @.str.33, ptr noundef %151, ptr noundef @.str.34, i32 noundef 529)
  br label %152

152:                                              ; preds = %150
  br label %153

153:                                              ; preds = %152
  store i32 -27, ptr %4, align 4
  store i32 1, ptr %13, align 4
  br label %168

154:                                              ; preds = %138
  %155 = load ptr, ptr %9, align 8, !tbaa !8
  %156 = call i32 @atoi(ptr noundef %155) #14
  %157 = trunc i32 %156 to i16
  %158 = call zeroext i16 @__bswap_16(i16 noundef zeroext %157)
  %159 = load ptr, ptr %12, align 8, !tbaa !156
  %160 = getelementptr inbounds nuw %struct.sockaddr_in6, ptr %159, i32 0, i32 1
  store i16 %158, ptr %160, align 2, !tbaa !161
  %161 = load ptr, ptr %7, align 8, !tbaa !148
  store i64 28, ptr %161, align 8, !tbaa !33
  br label %162

162:                                              ; preds = %154, %80
  %163 = load ptr, ptr %8, align 8, !tbaa !8
  %164 = icmp ne ptr null, %163
  br i1 %164, label %165, label %167

165:                                              ; preds = %162
  %166 = load ptr, ptr %8, align 8, !tbaa !8
  call void @free(ptr noundef %166) #13
  br label %167

167:                                              ; preds = %165, %162
  store i32 0, ptr %4, align 4
  store i32 1, ptr %13, align 4
  br label %168

168:                                              ; preds = %167, %153, %109, %98, %79, %55, %44
  call void @llvm.lifetime.end.p0(i64 8, ptr %12) #13
  call void @llvm.lifetime.end.p0(i64 8, ptr %11) #13
  call void @llvm.lifetime.end.p0(i64 8, ptr %10) #13
  call void @llvm.lifetime.end.p0(i64 8, ptr %9) #13
  call void @llvm.lifetime.end.p0(i64 8, ptr %8) #13
  %169 = load i32, ptr %4, align 4
  ret i32 %169
}