; Function Attrs: nounwind uwtable
define range(i32 -32, 1) i32 @pmix_ptl_base_setup_connection(ptr noundef %0, ptr noundef initializes((0, 128)) %1, ptr noundef writeonly captures(none) %2) local_unnamed_addr #0 {
  %4 = load i32, ptr getelementptr inbounds nuw (i8, ptr @pmix_ptl_base_framework, i64 76), align 4, !tbaa !34
  %or.cond = icmp ult i32 %4, 64
  br i1 %or.cond, label %5, label %11

5:                                                ; preds = %3
  %6 = zext nneg i32 %4 to i64
  %7 = getelementptr inbounds nuw [0 x %struct.pmix_output_desc_t], ptr @pmix_output_info, i64 0, i64 %6, i32 2
  %8 = load i32, ptr %7, align 4, !tbaa !37
  %9 = icmp sgt i32 %8, 1
  br i1 %9, label %10, label %11

10:                                               ; preds = %5
  tail call void (i32, ptr, ...) @pmix_output(i32 noundef %4, ptr noundef nonnull @.str.42, ptr noundef %0) #20
  br label %11

11:                                               ; preds = %10, %5, %3
  tail call void @llvm.memset.p0.i64(ptr noundef nonnull align 8 dereferenceable(128) %1, i8 0, i64 128, i1 false)
  %12 = tail call i32 @strncmp(ptr noundef nonnull dereferenceable(1) %0, ptr noundef nonnull dereferenceable(5) @.str.43, i64 noundef 4) #21
  %13 = icmp eq i32 %12, 0
  %14 = getelementptr inbounds nuw i8, ptr %0, i64 7
  %15 = tail call noalias ptr @strdup(ptr noundef nonnull %14) #20
  %16 = icmp eq ptr %15, null
  br i1 %13, label %17, label %33

17:                                               ; preds = %11
  br i1 %16, label %18, label %20

18:                                               ; preds = %17
  %19 = tail call ptr @PMIx_Error_string(i32 noundef -32) #20
  tail call void (i32, ptr, ...) @pmix_output(i32 noundef 0, ptr noundef nonnull @.str.33, ptr noundef %19, ptr noundef nonnull @.str.34, i32 noundef 475) #20
  br label %60

20:                                               ; preds = %17
  %21 = tail call ptr @strrchr(ptr noundef nonnull dereferenceable(1) %15, i32 noundef 58) #21
  %22 = icmp eq ptr %21, null
  br i1 %22, label %23, label %25

23:                                               ; preds = %20
  tail call void @free(ptr noundef nonnull %15) #20
  %24 = tail call ptr @PMIx_Error_string(i32 noundef -27) #20
  tail call void (i32, ptr, ...) @pmix_output(i32 noundef 0, ptr noundef nonnull @.str.33, ptr noundef %24, ptr noundef nonnull @.str.34, i32 noundef 483) #20
  br label %60

25:                                               ; preds = %20
  store i8 0, ptr %21, align 1, !tbaa !28
  store i16 2, ptr %1, align 4, !tbaa !109
  %26 = tail call i32 @inet_addr(ptr noundef nonnull %15) #20
  %27 = getelementptr inbounds nuw i8, ptr %1, i64 4
  store i32 %26, ptr %27, align 4, !tbaa !112
  %28 = icmp eq i32 %26, -1
  br i1 %28, label %29, label %31

29:                                               ; preds = %25
  tail call void @free(ptr noundef nonnull %15) #20
  %30 = tail call ptr @PMIx_Error_string(i32 noundef -27) #20
  tail call void (i32, ptr, ...) @pmix_output(i32 noundef 0, ptr noundef nonnull @.str.33, ptr noundef %30, ptr noundef nonnull @.str.34, i32 noundef 495) #20
  br label %60

31:                                               ; preds = %25
  %32 = getelementptr inbounds nuw i8, ptr %21, i64 1
  br label %56

33:                                               ; preds = %11
  br i1 %16, label %34, label %36

34:                                               ; preds = %33
  %35 = tail call ptr @PMIx_Error_string(i32 noundef -32) #20
  tail call void (i32, ptr, ...) @pmix_output(i32 noundef 0, ptr noundef nonnull @.str.33, ptr noundef %35, ptr noundef nonnull @.str.34, i32 noundef 504) #20
  br label %60

36:                                               ; preds = %33
  %37 = tail call ptr @strrchr(ptr noundef nonnull dereferenceable(1) %15, i32 noundef 58) #21
  %38 = icmp eq ptr %37, null
  br i1 %38, label %39, label %41

39:                                               ; preds = %36
  tail call void @free(ptr noundef nonnull %15) #20
  %40 = tail call ptr @PMIx_Error_string(i32 noundef -27) #20
  tail call void (i32, ptr, ...) @pmix_output(i32 noundef 0, ptr noundef nonnull @.str.33, ptr noundef %40, ptr noundef nonnull @.str.34, i32 noundef 511) #20
  br label %60

41:                                               ; preds = %36
  store i8 0, ptr %37, align 1, !tbaa !28
  %42 = tail call i64 @strlen(ptr noundef nonnull dereferenceable(1) %15) #21
  %43 = getelementptr i8, ptr %15, i64 %42
  %44 = getelementptr i8, ptr %43, i64 -1
  %45 = load i8, ptr %44, align 1, !tbaa !28
  %46 = icmp eq i8 %45, 93
  br i1 %46, label %47, label %48

47:                                               ; preds = %41
  store i8 0, ptr %44, align 1, !tbaa !28
  br label %48

48:                                               ; preds = %47, %41
  %49 = load i8, ptr %15, align 1, !tbaa !28
  %50 = icmp eq i8 %49, 91
  %.046.idx = zext i1 %50 to i64
  %.046 = getelementptr inbounds nuw i8, ptr %15, i64 %.046.idx
  store i16 10, ptr %1, align 4, !tbaa !113
  %51 = getelementptr inbounds nuw i8, ptr %1, i64 8
  %52 = tail call i32 @inet_pton(i32 noundef 10, ptr noundef nonnull %.046, ptr noundef nonnull %51) #20
  %53 = icmp eq i32 %52, 0
  br i1 %53, label %54, label %56

54:                                               ; preds = %48
  tail call void (i32, ptr, ...) @pmix_output(i32 noundef 0, ptr noundef nonnull @.str.44, ptr noundef nonnull %.046) #20
  tail call void @free(ptr noundef nonnull %15) #20
  %55 = tail call ptr @PMIx_Error_string(i32 noundef -27) #20
  tail call void (i32, ptr, ...) @pmix_output(i32 noundef 0, ptr noundef nonnull @.str.33, ptr noundef %55, ptr noundef nonnull @.str.34, i32 noundef 529) #20
  br label %60

56:                                               ; preds = %48, %31
  %.sink = phi ptr [ %32, %31 ], [ %37, %48 ]
  %storemerge = phi i64 [ 16, %31 ], [ 28, %48 ]
  %57 = tail call i64 @strtol(ptr noundef nonnull captures(none) %.sink, ptr noundef null, i32 noundef 10) #20
  %58 = trunc i64 %57 to i16
  %rev.i52 = tail call noundef i16 @llvm.bswap.i16(i16 %58)
  %59 = getelementptr inbounds nuw i8, ptr %1, i64 2
  store i16 %rev.i52, ptr %59, align 2, !tbaa !116
  store i64 %storemerge, ptr %2, align 8, !tbaa !117
  tail call void @free(ptr noundef nonnull %15) #20
  br label %60

60:                                               ; preds = %56, %54, %39, %34, %29, %23, %18
  %.0 = phi i32 [ -32, %18 ], [ -27, %23 ], [ -27, %29 ], [ 0, %56 ], [ -32, %34 ], [ -27, %39 ], [ -27, %54 ]
  ret i32 %.0
}